; Function Attrs: nofree norecurse nosync nounwind memory(argmem: readwrite) uwtable
define void @make_digest_ex(ptr nocapture noundef writeonly %0, ptr nocapture noundef readonly %1, i32 noundef %2) local_unnamed_addr #0 {
  %4 = icmp sgt i32 %2, 0
  br i1 %4, label %.lr.ph.preheader, label %._crit_edge

.lr.ph.preheader:                                 ; preds = %3
  %wide.trip.count = zext nneg i32 %2 to i64
  br label %.lr.ph

.lr.ph:                                           ; preds = %.lr.ph.preheader, %.lr.ph
  %indvars.iv = phi i64 [ 0, %.lr.ph.preheader ], [ %indvars.iv.next, %.lr.ph ]
  %5 = getelementptr inbounds i8, ptr %1, i64 %indvars.iv
  %6 = load i8, ptr %5, align 1
  %7 = lshr i8 %6, 4
  %8 = zext nneg i8 %7 to i64
  %9 = getelementptr inbounds [17 x i8], ptr @make_digest_ex.hexits, i64 0, i64 %8
  %10 = load i8, ptr %9, align 1
  %11 = shl nuw nsw i64 %indvars.iv, 1
  %12 = getelementptr inbounds i8, ptr %0, i64 %11
  store i8 %10, ptr %12, align 1
  %13 = load i8, ptr %5, align 1
  %14 = and i8 %13, 15
  %15 = zext nneg i8 %14 to i64
  %16 = getelementptr inbounds [17 x i8], ptr @make_digest_ex.hexits, i64 0, i64 %15
  %17 = load i8, ptr %16, align 1
  %18 = or disjoint i64 %11, 1
  %19 = getelementptr inbounds i8, ptr %0, i64 %18
  store i8 %17, ptr %19, align 1
  %indvars.iv.next = add nuw nsw i64 %indvars.iv, 1
  %exitcond.not = icmp eq i64 %indvars.iv.next, %wide.trip.count
  br i1 %exitcond.not, label %._crit_edge, label %.lr.ph

._crit_edge:                                      ; preds = %.lr.ph, %3
  %20 = shl nsw i32 %2, 1
  %21 = sext i32 %20 to i64
  %22 = getelementptr inbounds i8, ptr %0, i64 %21
  store i8 0, ptr %22, align 1
  ret void
}